; ModuleID = '19/869.c'
source_filename = "19/869.c"
target datalayout = "e-m:e-p270:32:32-p271:32:32-p272:64:64-i64:64-f80:128-n8:16:32:64-S128"
target triple = "x86_64-pc-linux-gnu"

@.str = private unnamed_addr constant [6 x i8] c"%s %s\00", align 1
@.str.1 = private unnamed_addr constant [4 x i8] c"%s \00", align 1
@.str.2 = private unnamed_addr constant [3 x i8] c"%s\00", align 1

; Function Attrs: noinline nounwind uwtable
define dso_local i32 @main() #0 {
  %1 = alloca i32, align 4
  %2 = alloca [1000 x i8], align 16
  %3 = alloca [50 x [1000 x i8]], align 16
  %4 = alloca [1000 x i8], align 16
  %5 = alloca [1000 x i8], align 16
  %6 = alloca i32, align 4
  %7 = alloca i32, align 4
  %8 = alloca i32, align 4
  %9 = alloca i32, align 4
  %10 = alloca i32, align 4
  %11 = alloca i32, align 4
  %12 = alloca i32, align 4
  %13 = alloca i32, align 4
  %14 = alloca i32, align 4
  %15 = alloca i32, align 4
  %16 = alloca i32, align 4
  store i32 0, i32* %1, align 4
  %17 = getelementptr inbounds [1000 x i8], [1000 x i8]* %2, i64 0, i64 0
  %18 = call i32 (i8*, ...) bitcast (i32 (...)* @gets to i32 (i8*, ...)*)(i8* %17)
  %19 = getelementptr inbounds [1000 x i8], [1000 x i8]* %4, i64 0, i64 0
  %20 = getelementptr inbounds [1000 x i8], [1000 x i8]* %5, i64 0, i64 0
  %21 = call i32 (i8*, ...) @__isoc99_scanf(i8* getelementptr inbounds ([6 x i8], [6 x i8]* @.str, i64 0, i64 0), i8* %19, i8* %20)
  store i32 0, i32* %8, align 4
  store i32 0, i32* %9, align 4
  store i32 0, i32* %10, align 4
  store i32 0, i32* %11, align 4
  store i32 0, i32* %12, align 4
  store i32 100, i32* %13, align 4
  %22 = getelementptr inbounds [1000 x i8], [1000 x i8]* %2, i64 0, i64 0
  %23 = call i64 @strlen(i8* %22) #3
  %24 = trunc i64 %23 to i32
  store i32 %24, i32* %16, align 4
  store i32 0, i32* %7, align 4
  br label %25

25:                                               ; preds = %73, %0
  %26 = load i32, i32* %7, align 4
  %27 = icmp slt i32 %26, 50
  br i1 %27, label %28, label %76

28:                                               ; preds = %25
  store i32 0, i32* %9, align 4
  %29 = load i32, i32* %8, align 4
  store i32 %29, i32* %6, align 4
  br label %30

30:                                               ; preds = %60, %28
  %31 = load i32, i32* %6, align 4
  %32 = icmp slt i32 %31, 1000
  br i1 %32, label %33, label %63

33:                                               ; preds = %30
  %34 = load i32, i32* %6, align 4
  %35 = sext i32 %34 to i64
  %36 = getelementptr inbounds [1000 x i8], [1000 x i8]* %2, i64 0, i64 %35
  %37 = load i8, i8* %36, align 1
  %38 = sext i8 %37 to i32
  %39 = icmp eq i32 %38, 32
  br i1 %39, label %40, label %43

40:                                               ; preds = %33
  %41 = load i32, i32* %11, align 4
  %42 = add nsw i32 %41, 1
  store i32 %42, i32* %11, align 4
  br label %63

43:                                               ; preds = %33
  %44 = load i32, i32* %6, align 4
  %45 = sext i32 %44 to i64
  %46 = getelementptr inbounds [1000 x i8], [1000 x i8]* %2, i64 0, i64 %45
  %47 = load i8, i8* %46, align 1
  %48 = load i32, i32* %7, align 4
  %49 = sext i32 %48 to i64
  %50 = getelementptr inbounds [50 x [1000 x i8]], [50 x [1000 x i8]]* %3, i64 0, i64 %49
  %51 = load i32, i32* %9, align 4
  %52 = sext i32 %51 to i64
  %53 = getelementptr inbounds [1000 x i8], [1000 x i8]* %50, i64 0, i64 %52
  store i8 %47, i8* %53, align 1
  %54 = load i32, i32* %8, align 4
  %55 = add nsw i32 %54, 1
  store i32 %55, i32* %8, align 4
  %56 = load i32, i32* %9, align 4
  %57 = add nsw i32 %56, 1
  store i32 %57, i32* %9, align 4
  %58 = load i32, i32* %10, align 4
  %59 = add nsw i32 %58, 1
  store i32 %59, i32* %10, align 4
  br label %60

60:                                               ; preds = %43
  %61 = load i32, i32* %6, align 4
  %62 = add nsw i32 %61, 1
  store i32 %62, i32* %6, align 4
  br label %30

63:                                               ; preds = %40, %30
  %64 = load i32, i32* %8, align 4
  %65 = add nsw i32 %64, 1
  store i32 %65, i32* %8, align 4
  %66 = load i32, i32* %10, align 4
  %67 = add nsw i32 %66, 1
  store i32 %67, i32* %10, align 4
  %68 = load i32, i32* %10, align 4
  %69 = load i32, i32* %16, align 4
  %70 = icmp sgt i32 %68, %69
  br i1 %70, label %71, label %72

71:                                               ; preds = %63
  br label %76

72:                                               ; preds = %63
  br label %73

73:                                               ; preds = %72
  %74 = load i32, i32* %7, align 4
  %75 = add nsw i32 %74, 1
  store i32 %75, i32* %7, align 4
  br label %25

76:                                               ; preds = %71, %25
  store i32 0, i32* %6, align 4
  br label %77

77:                                               ; preds = %99, %76
  %78 = load i32, i32* %6, align 4
  %79 = load i32, i32* %11, align 4
  %80 = icmp slt i32 %78, %79
  br i1 %80, label %81, label %102

81:                                               ; preds = %77
  %82 = load i32, i32* %6, align 4
  %83 = sext i32 %82 to i64
  %84 = getelementptr inbounds [50 x [1000 x i8]], [50 x [1000 x i8]]* %3, i64 0, i64 %83
  %85 = getelementptr inbounds [1000 x i8], [1000 x i8]* %84, i64 0, i64 0
  %86 = getelementptr inbounds [1000 x i8], [1000 x i8]* %4, i64 0, i64 0
  %87 = call i32 @strcmp(i8* %85, i8* %86) #3
  %88 = icmp eq i32 %87, 0
  br i1 %88, label %89, label %92

89:                                               ; preds = %81
  %90 = getelementptr inbounds [1000 x i8], [1000 x i8]* %5, i64 0, i64 0
  %91 = call i32 (i8*, ...) @printf(i8* getelementptr inbounds ([4 x i8], [4 x i8]* @.str.1, i64 0, i64 0), i8* %90)
  br label %98

92:                                               ; preds = %81
  %93 = load i32, i32* %6, align 4
  %94 = sext i32 %93 to i64
  %95 = getelementptr inbounds [50 x [1000 x i8]], [50 x [1000 x i8]]* %3, i64 0, i64 %94
  %96 = getelementptr inbounds [1000 x i8], [1000 x i8]* %95, i64 0, i64 0
  %97 = call i32 (i8*, ...) @printf(i8* getelementptr inbounds ([4 x i8], [4 x i8]* @.str.1, i64 0, i64 0), i8* %96)
  br label %98

98:                                               ; preds = %92, %89
  br label %99

99:                                               ; preds = %98
  %100 = load i32, i32* %6, align 4
  %101 = add nsw i32 %100, 1
  store i32 %101, i32* %6, align 4
  br label %77

102:                                              ; preds = %77
  %103 = load i32, i32* %11, align 4
  %104 = sext i32 %103 to i64
  %105 = getelementptr inbounds [50 x [1000 x i8]], [50 x [1000 x i8]]* %3, i64 0, i64 %104
  %106 = getelementptr inbounds [1000 x i8], [1000 x i8]* %105, i64 0, i64 0
  %107 = getelementptr inbounds [1000 x i8], [1000 x i8]* %4, i64 0, i64 0
  %108 = call i32 @strcmp(i8* %106, i8* %107) #3
  %109 = icmp eq i32 %108, 0
  br i1 %109, label %110, label %113

110:                                              ; preds = %102
  %111 = getelementptr inbounds [1000 x i8], [1000 x i8]* %5, i64 0, i64 0
  %112 = call i32 (i8*, ...) @printf(i8* getelementptr inbounds ([3 x i8], [3 x i8]* @.str.2, i64 0, i64 0), i8* %111)
  br label %119

113:                                              ; preds = %102
  %114 = load i32, i32* %11, align 4
  %115 = sext i32 %114 to i64
  %116 = getelementptr inbounds [50 x [1000 x i8]], [50 x [1000 x i8]]* %3, i64 0, i64 %115
  %117 = getelementptr inbounds [1000 x i8], [1000 x i8]* %116, i64 0, i64 0
  %118 = call i32 (i8*, ...) @printf(i8* getelementptr inbounds ([3 x i8], [3 x i8]* @.str.2, i64 0, i64 0), i8* %117)
  br label %119

119:                                              ; preds = %113, %110
  ret i32 0
}

declare dso_local i32 @gets(...) #1

declare dso_local i32 @__isoc99_scanf(i8*, ...) #1

; Function Attrs: nounwind readonly
declare dso_local i64 @strlen(i8*) #2

; Function Attrs: nounwind readonly
declare dso_local i32 @strcmp(i8*, i8*) #2

declare dso_local i32 @printf(i8*, ...) #1


!llvm.module.flags = !{!0}
!llvm.ident = !{!1}

!0 = !{i32 1, !"wchar_size", i32 4}
!1 = !{!"clang version 10.0.0-4ubuntu1 "}
